; ModuleID = '50/1667.c'
source_filename = "50/1667.c"
target datalayout = "e-m:e-p270:32:32-p271:32:32-p272:64:64-i64:64-f80:128-n8:16:32:64-S128"
target triple = "x86_64-pc-linux-gnu"

@.str = private unnamed_addr constant [3 x i8] c"%d\00", align 1
@.str.1 = private unnamed_addr constant [4 x i8] c"%d\0A\00", align 1

; Function Attrs: noinline nounwind uwtable
define dso_local i32 @main() #0 {
  %1 = alloca i32, align 4
  %2 = alloca i32, align 4
  %3 = alloca i32, align 4
  %4 = alloca i32, align 4
  %5 = alloca [12 x i32], align 16
  store i32 0, i32* %1, align 4
  %6 = call i32 (i8*, ...) @__isoc99_scanf(i8* getelementptr inbounds ([3 x i8], [3 x i8]* @.str, i64 0, i64 0), i32* %2)
  %7 = getelementptr inbounds [12 x i32], [12 x i32]* %5, i64 0, i64 0
  store i32 12, i32* %7, align 16
  %8 = getelementptr inbounds [12 x i32], [12 x i32]* %5, i64 0, i64 1
  store i32 43, i32* %8, align 4
  %9 = getelementptr inbounds [12 x i32], [12 x i32]* %5, i64 0, i64 2
  store i32 71, i32* %9, align 8
  %10 = getelementptr inbounds [12 x i32], [12 x i32]* %5, i64 0, i64 3
  store i32 102, i32* %10, align 4
  %11 = getelementptr inbounds [12 x i32], [12 x i32]* %5, i64 0, i64 4
  store i32 132, i32* %11, align 16
  %12 = getelementptr inbounds [12 x i32], [12 x i32]* %5, i64 0, i64 5
  store i32 163, i32* %12, align 4
  %13 = getelementptr inbounds [12 x i32], [12 x i32]* %5, i64 0, i64 6
  store i32 193, i32* %13, align 8
  %14 = getelementptr inbounds [12 x i32], [12 x i32]* %5, i64 0, i64 7
  store i32 224, i32* %14, align 4
  %15 = getelementptr inbounds [12 x i32], [12 x i32]* %5, i64 0, i64 8
  store i32 255, i32* %15, align 16
  %16 = getelementptr inbounds [12 x i32], [12 x i32]* %5, i64 0, i64 9
  store i32 285, i32* %16, align 4
  %17 = getelementptr inbounds [12 x i32], [12 x i32]* %5, i64 0, i64 10
  store i32 316, i32* %17, align 8
  %18 = getelementptr inbounds [12 x i32], [12 x i32]* %5, i64 0, i64 11
  store i32 346, i32* %18, align 4
  store i32 0, i32* %3, align 4
  br label %19

19:                                               ; preds = %58, %0
  %20 = load i32, i32* %3, align 4
  %21 = icmp sle i32 %20, 11
  br i1 %21, label %22, label %61

22:                                               ; preds = %19
  %23 = load i32, i32* %2, align 4
  %24 = load i32, i32* %3, align 4
  %25 = sext i32 %24 to i64
  %26 = getelementptr inbounds [12 x i32], [12 x i32]* %5, i64 0, i64 %25
  %27 = load i32, i32* %26, align 4
  %28 = srem i32 %27, 7
  %29 = add nsw i32 %23, %28
  %30 = load i32, i32* %3, align 4
  %31 = sext i32 %30 to i64
  %32 = getelementptr inbounds [12 x i32], [12 x i32]* %5, i64 0, i64 %31
  store i32 %29, i32* %32, align 4
  %33 = load i32, i32* %3, align 4
  %34 = sext i32 %33 to i64
  %35 = getelementptr inbounds [12 x i32], [12 x i32]* %5, i64 0, i64 %34
  %36 = load i32, i32* %35, align 4
  %37 = icmp sgt i32 %36, 7
  br i1 %37, label %38, label %47

38:                                               ; preds = %22
  %39 = load i32, i32* %3, align 4
  %40 = sext i32 %39 to i64
  %41 = getelementptr inbounds [12 x i32], [12 x i32]* %5, i64 0, i64 %40
  %42 = load i32, i32* %41, align 4
  %43 = sub nsw i32 %42, 7
  %44 = load i32, i32* %3, align 4
  %45 = sext i32 %44 to i64
  %46 = getelementptr inbounds [12 x i32], [12 x i32]* %5, i64 0, i64 %45
  store i32 %43, i32* %46, align 4
  br label %47

47:                                               ; preds = %38, %22
  %48 = load i32, i32* %3, align 4
  %49 = sext i32 %48 to i64
  %50 = getelementptr inbounds [12 x i32], [12 x i32]* %5, i64 0, i64 %49
  %51 = load i32, i32* %50, align 4
  %52 = icmp eq i32 %51, 5
  br i1 %52, label %53, label %57

53:                                               ; preds = %47
  %54 = load i32, i32* %3, align 4
  %55 = add nsw i32 %54, 1
  %56 = call i32 (i8*, ...) @printf(i8* getelementptr inbounds ([4 x i8], [4 x i8]* @.str.1, i64 0, i64 0), i32 %55)
  br label %57

57:                                               ; preds = %53, %47
  br label %58

58:                                               ; preds = %57
  %59 = load i32, i32* %3, align 4
  %60 = add nsw i32 %59, 1
  store i32 %60, i32* %3, align 4
  br label %19

61:                                               ; preds = %19
  ret i32 0
}

declare dso_local i32 @__isoc99_scanf(i8*, ...) #1

declare dso_local i32 @printf(i8*, ...) #1


!llvm.module.flags = !{!0}
!llvm.ident = !{!1}

!0 = !{i32 1, !"wchar_size", i32 4}
!1 = !{!"clang version 10.0.0-4ubuntu1 "}
